target datalayout = "e-m:e-p270:32:32-p271:32:32-p272:64:64-i64:64-i128:128-f80:128-n8:16:32:64-S128"
target triple = "x86_64-pc-linux-gnu"

%struct.SDL_Process = type { i8, i8, i32, i32, ptr }

@.str = private unnamed_addr constant [26 x i8] c"Parameter '%s' is invalid\00", align 1
@.str.8 = private unnamed_addr constant [8 x i8] c"process\00", align 1
@.str.9 = private unnamed_addr constant [19 x i8] c"SDL.process.stdout\00", align 1
@.str.13 = private unnamed_addr constant [51 x i8] c"Process not created with standard output available\00", align 1

; Function Attrs: nounwind uwtable
define hidden ptr @SDL_GetProcessOutput_REAL(ptr noundef %0) #0 {
  %2 = alloca ptr, align 8
  %3 = alloca ptr, align 8
  %4 = alloca ptr, align 8
  %5 = alloca i32, align 4
  store ptr %0, ptr %3, align 8
  %6 = load ptr, ptr %3, align 8
  %7 = icmp ne ptr %6, null
  br i1 %7, label %10, label %8

8:                                                ; preds = %1
  %9 = call zeroext i1 (ptr, ...) @SDL_SetError_REAL(ptr noundef @.str, ptr noundef @.str.8)
  store ptr null, ptr %2, align 8
  br label %22

10:                                               ; preds = %1
  call void @llvm.lifetime.start.p0(i64 8, ptr %4) #4
  %11 = load ptr, ptr %3, align 8
  %12 = getelementptr inbounds nuw %struct.SDL_Process, ptr %11, i32 0, i32 3
  %13 = load i32, ptr %12, align 8
  %14 = call ptr @SDL_GetPointerProperty_REAL(i32 noundef %13, ptr noundef @.str.9, ptr noundef null)
  store ptr %14, ptr %4, align 8
  %15 = load ptr, ptr %4, align 8
  %16 = icmp ne ptr %15, null
  br i1 %16, label %19, label %17

17:                                               ; preds = %10
  %18 = call zeroext i1 (ptr, ...) @SDL_SetError_REAL(ptr noundef @.str.13)
  store ptr null, ptr %2, align 8
  store i32 1, ptr %5, align 4
  br label %21

19:                                               ; preds = %10
  %20 = load ptr, ptr %4, align 8
  store ptr %20, ptr %2, align 8
  store i32 1, ptr %5, align 4
  br label %21

21:                                               ; preds = %19, %17
  call void @llvm.lifetime.end.p0(i64 8, ptr %4) #4
  br label %22

22:                                               ; preds = %21, %8
  %23 = load ptr, ptr %2, align 8
  ret ptr %23
}